target datalayout = "e-m:e-p270:32:32-p271:32:32-p272:64:64-i64:64-i128:128-f80:128-n8:16:32:64-S128"
target triple = "x86_64-pc-linux-gnu"

%class.QString = type { %struct.QArrayDataPointer.0 }
%struct.QArrayDataPointer.0 = type { ptr, ptr, i64 }
%class.QList.1 = type { %struct.QArrayDataPointer.4 }
%struct.QArrayDataPointer.4 = type { ptr, ptr, i64 }
%class.WiresharkMainWindow = type { %class.MainWindow, ptr, %class.CaptureFile, %class.QFont, %class.QMap, ptr, ptr, ptr, ptr, ptr, ptr, %class.QList.9, %class.QPointer, %class.QMap.13, %class.QMap.15, i8, %class.QString, i8, i8, i8, %class.QPoint, %class.QPointer.17 }
%class.MainWindow = type { %class.QMainWindow, %class.QList.1, ptr, ptr, %class.QSplitter, %class.QSplitter, %class.QWidget, %class.QList.5, ptr, ptr, ptr, ptr, ptr, ptr }
%class.QMainWindow = type { %class.QWidget }
%class.QSplitter = type { %class.QFrame }
%class.QFrame = type { %class.QWidget }
%class.QWidget = type { %class.QObject, %class.QPaintDevice.base, ptr }
%class.QObject = type { ptr, %class.QScopedPointer }
%class.QScopedPointer = type { ptr }
%class.QPaintDevice.base = type <{ ptr, i16 }>
%class.QList.5 = type { %struct.QArrayDataPointer.8 }
%struct.QArrayDataPointer.8 = type { ptr, ptr, i64 }
%class.CaptureFile = type { %class.QObject, ptr, %class.QString }
%class.QFont = type <{ %class.QExplicitlySharedDataPointer, i32, [4 x i8] }>
%class.QExplicitlySharedDataPointer = type { ptr }
%class.QMap = type { %"class.QtPrivate::QExplicitlySharedDataPointerV2" }
%"class.QtPrivate::QExplicitlySharedDataPointerV2" = type { ptr }
%class.QList.9 = type { %struct.QArrayDataPointer.12 }
%struct.QArrayDataPointer.12 = type { ptr, ptr, i64 }
%class.QPointer = type { %class.QWeakPointer }
%class.QWeakPointer = type { ptr, ptr }
%class.QMap.13 = type { %"class.QtPrivate::QExplicitlySharedDataPointerV2.14" }
%"class.QtPrivate::QExplicitlySharedDataPointerV2.14" = type { ptr }
%class.QMap.15 = type { %"class.QtPrivate::QExplicitlySharedDataPointerV2.16" }
%"class.QtPrivate::QExplicitlySharedDataPointerV2.16" = type { ptr }
%class.QPoint = type { i32, i32 }
%class.QPointer.17 = type { %class.QWeakPointer }
%class.Ui_WiresharkMainWindow = type { ptr, ptr, ptr, ptr, ptr, ptr, ptr, ptr, ptr, ptr, ptr, ptr, ptr, ptr, ptr, ptr, ptr, ptr, ptr, ptr, ptr, ptr, ptr, ptr, ptr, ptr, ptr, ptr, ptr, ptr, ptr, ptr, ptr, ptr, ptr, ptr, ptr, ptr, ptr, ptr, ptr, ptr, ptr, ptr, ptr, ptr, ptr, ptr, ptr, ptr, ptr, ptr, ptr, ptr, ptr, ptr, ptr, ptr, ptr, ptr, ptr, ptr, ptr, ptr, ptr, ptr, ptr, ptr, ptr, ptr, ptr, ptr, ptr, ptr, ptr, ptr, ptr, ptr, ptr, ptr, ptr, ptr, ptr, ptr, ptr, ptr, ptr, ptr, ptr, ptr, ptr, ptr, ptr, ptr, ptr, ptr, ptr, ptr, ptr, ptr, ptr, ptr, ptr, ptr, ptr, ptr, ptr, ptr, ptr, ptr, ptr, ptr, ptr, ptr, ptr, ptr, ptr, ptr, ptr, ptr, ptr, ptr, ptr, ptr, ptr, ptr, ptr, ptr, ptr, ptr, ptr, ptr, ptr, ptr, ptr, ptr, ptr, ptr, ptr, ptr, ptr, ptr, ptr, ptr, ptr, ptr, ptr, ptr, ptr, ptr, ptr, ptr, ptr, ptr, ptr, ptr, ptr, ptr, ptr, ptr, ptr, ptr, ptr, ptr, ptr, ptr, ptr, ptr, ptr, ptr, ptr, ptr, ptr, ptr, ptr, ptr, ptr, ptr, ptr, ptr, ptr, ptr, ptr, ptr, ptr, ptr, ptr, ptr, ptr, ptr, ptr, ptr, ptr, ptr, ptr, ptr, ptr, ptr, ptr, ptr, ptr, ptr, ptr, ptr, ptr, ptr, ptr, ptr, ptr, ptr, ptr, ptr, ptr, ptr, ptr, ptr, ptr, ptr, ptr, ptr, ptr, ptr, ptr, ptr, ptr, ptr, ptr, ptr, ptr, ptr, ptr, ptr, ptr, ptr, ptr, ptr, ptr, ptr, ptr, ptr, ptr, ptr, ptr, ptr, ptr, ptr, ptr, ptr, ptr, ptr, ptr, ptr, ptr, ptr, ptr, ptr, ptr, ptr, ptr, ptr, ptr, ptr, ptr, ptr, ptr, ptr, ptr, ptr, ptr, ptr, ptr, ptr, ptr, ptr, ptr, ptr, ptr, ptr, ptr, ptr, ptr, ptr, ptr, ptr, ptr, ptr, ptr, ptr, ptr, ptr, ptr, ptr, ptr, ptr, ptr, ptr, ptr, ptr, ptr, ptr, ptr, ptr, ptr, ptr, ptr, ptr, ptr, ptr, ptr, ptr, ptr, ptr, ptr, ptr, ptr, ptr, ptr, ptr, ptr, ptr, ptr, ptr }

; Function Attrs: mustprogress uwtable
define void @_ZN19WiresharkMainWindow18setMenusForFileSetEb(ptr noundef nonnull align 8 dereferenceable(520) %0, i1 noundef zeroext %1) #0 align 2 {
  %3 = alloca ptr, align 8
  %4 = alloca i8, align 1
  %5 = alloca i8, align 1
  %6 = alloca i8, align 1
  store ptr %0, ptr %3, align 8
  %7 = zext i1 %1 to i8
  store i8 %7, ptr %4, align 1
  %8 = load ptr, ptr %3, align 8
  %9 = call ptr @fileset_get_next()
  %10 = icmp ne ptr %9, null
  br i1 %10, label %11, label %14

11:                                               ; preds = %2
  %12 = load i8, ptr %4, align 1
  %13 = trunc i8 %12 to i1
  br label %14

14:                                               ; preds = %11, %2
  %15 = phi i1 [ false, %2 ], [ %13, %11 ]
  %16 = zext i1 %15 to i8
  store i8 %16, ptr %5, align 1
  %17 = call ptr @fileset_get_previous()
  %18 = icmp ne ptr %17, null
  br i1 %18, label %19, label %22

19:                                               ; preds = %14
  %20 = load i8, ptr %4, align 1
  %21 = trunc i8 %20 to i1
  br label %22

22:                                               ; preds = %19, %14
  %23 = phi i1 [ false, %14 ], [ %21, %19 ]
  %24 = zext i1 %23 to i8
  store i8 %24, ptr %6, align 1
  %25 = getelementptr inbounds %class.WiresharkMainWindow, ptr %8, i32 0, i32 1
  %26 = load ptr, ptr %25, align 8
  %27 = getelementptr inbounds %class.Ui_WiresharkMainWindow, ptr %26, i32 0, i32 43
  %28 = load ptr, ptr %27, align 8
  %29 = load i8, ptr %4, align 1
  %30 = trunc i8 %29 to i1
  call void @_ZN7QAction10setEnabledEb(ptr noundef nonnull align 8 dereferenceable(16) %28, i1 noundef zeroext %30)
  %31 = getelementptr inbounds %class.WiresharkMainWindow, ptr %8, i32 0, i32 1
  %32 = load ptr, ptr %31, align 8
  %33 = getelementptr inbounds %class.Ui_WiresharkMainWindow, ptr %32, i32 0, i32 44
  %34 = load ptr, ptr %33, align 8
  %35 = load i8, ptr %5, align 1
  %36 = trunc i8 %35 to i1
  call void @_ZN7QAction10setEnabledEb(ptr noundef nonnull align 8 dereferenceable(16) %34, i1 noundef zeroext %36)
  %37 = getelementptr inbounds %class.WiresharkMainWindow, ptr %8, i32 0, i32 1
  %38 = load ptr, ptr %37, align 8
  %39 = getelementptr inbounds %class.Ui_WiresharkMainWindow, ptr %38, i32 0, i32 45
  %40 = load ptr, ptr %39, align 8
  %41 = load i8, ptr %6, align 1
  %42 = trunc i8 %41 to i1
  call void @_ZN7QAction10setEnabledEb(ptr noundef nonnull align 8 dereferenceable(16) %40, i1 noundef zeroext %42)
  ret void
}