; Function Attrs: mustprogress uwtable
define void @_ZN19WiresharkMainWindow18setMenusForFileSetEb(ptr nocapture noundef nonnull readonly align 8 dereferenceable(520) %0, i1 noundef zeroext %1) local_unnamed_addr #0 align 2 {
  %3 = tail call ptr @fileset_get_next()
  %4 = icmp ne ptr %3, null
  %5 = and i1 %4, %1
  %6 = tail call ptr @fileset_get_previous()
  %7 = icmp ne ptr %6, null
  %8 = and i1 %7, %1
  %9 = getelementptr inbounds i8, ptr %0, i64 272
  %10 = load ptr, ptr %9, align 8
  %11 = getelementptr inbounds i8, ptr %10, i64 344
  %12 = load ptr, ptr %11, align 8
  tail call void @_ZN7QAction10setEnabledEb(ptr noundef nonnull align 8 dereferenceable(16) %12, i1 noundef zeroext %1)
  %13 = load ptr, ptr %9, align 8
  %14 = getelementptr inbounds i8, ptr %13, i64 352
  %15 = load ptr, ptr %14, align 8
  tail call void @_ZN7QAction10setEnabledEb(ptr noundef nonnull align 8 dereferenceable(16) %15, i1 noundef zeroext %5)
  %16 = load ptr, ptr %9, align 8
  %17 = getelementptr inbounds i8, ptr %16, i64 360
  %18 = load ptr, ptr %17, align 8
  tail call void @_ZN7QAction10setEnabledEb(ptr noundef nonnull align 8 dereferenceable(16) %18, i1 noundef zeroext %8)
  ret void
}